target datalayout = "e-m:e-p270:32:32-p271:32:32-p272:64:64-i64:64-i128:128-f80:128-n8:16:32:64-S128"
target triple = "x86_64-pc-linux-gnu"

%struct._DlsMat = type { i32, i64, i64, i64, i64, i64, i64, ptr, i64, ptr }

; Function Attrs: nounwind uwtable
define void @SUNDlsMat_bandScale(double noundef %0, ptr noundef %1, i64 noundef %2, i64 noundef %3, i64 noundef %4, i64 noundef %5) #0 {
  %7 = alloca double, align 8
  %8 = alloca ptr, align 8
  %9 = alloca i64, align 8
  %10 = alloca i64, align 8
  %11 = alloca i64, align 8
  %12 = alloca i64, align 8
  %13 = alloca i64, align 8
  %14 = alloca i64, align 8
  %15 = alloca i64, align 8
  %16 = alloca ptr, align 8
  store double %0, ptr %7, align 8, !tbaa !23
  store ptr %1, ptr %8, align 8, !tbaa !20
  store i64 %2, ptr %9, align 8, !tbaa !21
  store i64 %3, ptr %10, align 8, !tbaa !21
  store i64 %4, ptr %11, align 8, !tbaa !21
  store i64 %5, ptr %12, align 8, !tbaa !21
  call void @llvm.lifetime.start.p0(i64 8, ptr %13) #3
  call void @llvm.lifetime.start.p0(i64 8, ptr %14) #3
  call void @llvm.lifetime.start.p0(i64 8, ptr %15) #3
  call void @llvm.lifetime.start.p0(i64 8, ptr %16) #3
  %17 = load i64, ptr %10, align 8, !tbaa !21
  %18 = load i64, ptr %11, align 8, !tbaa !21
  %19 = add nsw i64 %17, %18
  %20 = add nsw i64 %19, 1
  store i64 %20, ptr %15, align 8, !tbaa !21
  store i64 0, ptr %14, align 8, !tbaa !21
  br label %21

21:                                               ; preds = %50, %6
  %22 = load i64, ptr %14, align 8, !tbaa !21
  %23 = load i64, ptr %9, align 8, !tbaa !21
  %24 = icmp slt i64 %22, %23
  br i1 %24, label %25, label %53

25:                                               ; preds = %21
  %26 = load ptr, ptr %8, align 8, !tbaa !20
  %27 = load i64, ptr %14, align 8, !tbaa !21
  %28 = getelementptr inbounds ptr, ptr %26, i64 %27
  %29 = load ptr, ptr %28, align 8, !tbaa !22
  %30 = load i64, ptr %12, align 8, !tbaa !21
  %31 = getelementptr inbounds double, ptr %29, i64 %30
  %32 = load i64, ptr %10, align 8, !tbaa !21
  %33 = sub i64 0, %32
  %34 = getelementptr inbounds double, ptr %31, i64 %33
  store ptr %34, ptr %16, align 8, !tbaa !22
  store i64 0, ptr %13, align 8, !tbaa !21
  br label %35

35:                                               ; preds = %46, %25
  %36 = load i64, ptr %13, align 8, !tbaa !21
  %37 = load i64, ptr %15, align 8, !tbaa !21
  %38 = icmp slt i64 %36, %37
  br i1 %38, label %39, label %49

39:                                               ; preds = %35
  %40 = load double, ptr %7, align 8, !tbaa !23
  %41 = load ptr, ptr %16, align 8, !tbaa !22
  %42 = load i64, ptr %13, align 8, !tbaa !21
  %43 = getelementptr inbounds double, ptr %41, i64 %42
  %44 = load double, ptr %43, align 8, !tbaa !23
  %45 = fmul double %44, %40
  store double %45, ptr %43, align 8, !tbaa !23
  br label %46

46:                                               ; preds = %39
  %47 = load i64, ptr %13, align 8, !tbaa !21
  %48 = add nsw i64 %47, 1
  store i64 %48, ptr %13, align 8, !tbaa !21
  br label %35

49:                                               ; preds = %35
  br label %50

50:                                               ; preds = %49
  %51 = load i64, ptr %14, align 8, !tbaa !21
  %52 = add nsw i64 %51, 1
  store i64 %52, ptr %14, align 8, !tbaa !21
  br label %21

53:                                               ; preds = %21
  call void @llvm.lifetime.end.p0(i64 8, ptr %16) #3
  call void @llvm.lifetime.end.p0(i64 8, ptr %15) #3
  call void @llvm.lifetime.end.p0(i64 8, ptr %14) #3
  call void @llvm.lifetime.end.p0(i64 8, ptr %13) #3
  ret void
}

; Function Attrs: nounwind uwtable
define void @SUNDlsMat_BandScale(double noundef %0, ptr noundef %1) #0 {
  %3 = alloca double, align 8
  %4 = alloca ptr, align 8
  store double %0, ptr %3, align 8, !tbaa !23
  store ptr %1, ptr %4, align 8, !tbaa !3
  %5 = load double, ptr %3, align 8, !tbaa !23
  %6 = load ptr, ptr %4, align 8, !tbaa !3
  %7 = getelementptr inbounds nuw %struct._DlsMat, ptr %6, i32 0, i32 9
  %8 = load ptr, ptr %7, align 8, !tbaa !10
  %9 = load ptr, ptr %4, align 8, !tbaa !3
  %10 = getelementptr inbounds nuw %struct._DlsMat, ptr %9, i32 0, i32 1
  %11 = load i64, ptr %10, align 8, !tbaa !16
  %12 = load ptr, ptr %4, align 8, !tbaa !3
  %13 = getelementptr inbounds nuw %struct._DlsMat, ptr %12, i32 0, i32 4
  %14 = load i64, ptr %13, align 8, !tbaa !17
  %15 = load ptr, ptr %4, align 8, !tbaa !3
  %16 = getelementptr inbounds nuw %struct._DlsMat, ptr %15, i32 0, i32 5
  %17 = load i64, ptr %16, align 8, !tbaa !18
  %18 = load ptr, ptr %4, align 8, !tbaa !3
  %19 = getelementptr inbounds nuw %struct._DlsMat, ptr %18, i32 0, i32 6
  %20 = load i64, ptr %19, align 8, !tbaa !19
  call void @SUNDlsMat_bandScale(double noundef %5, ptr noundef %8, i64 noundef %11, i64 noundef %14, i64 noundef %17, i64 noundef %20)
  ret void
}